target datalayout = "e-m:e-p270:32:32-p271:32:32-p272:64:64-i64:64-i128:128-f80:128-n8:16:32:64-S128"
target triple = "x86_64-pc-linux-gnu"

%"class.std::__cxx11::basic_string" = type { %"struct.std::__cxx11::basic_string<char>::_Alloc_hider", i64, %union.anon }
%"struct.std::__cxx11::basic_string<char>::_Alloc_hider" = type { ptr }
%union.anon = type { i64, [8 x i8] }
%"class.std::allocator.5" = type { i8 }

@.str.3 = private unnamed_addr constant [108 x i8] c"generated/home/dtcxzyw/WorkSpace/Projects/compilers/llvm-opt-benchmark/bench/faiss/faiss/faiss/AutoTune.cpp\00", align 1
@_ZTIN5faiss14FaissExceptionE = external constant ptr
@.str.6 = private unnamed_addr constant [50 x i8] c"basic_string: construction from null is not valid\00", align 1
@.str.26 = private unnamed_addr constant [3 x i8] c" ,\00", align 1
@.str.27 = private unnamed_addr constant [12 x i8] c"%99[^=]=%lf\00", align 1
@.str.28 = private unnamed_addr constant [54 x i8] c"Error: '%s' failed: could not interpret parameters %s\00", align 1
@.str.29 = private unnamed_addr constant [9 x i8] c"ret == 2\00", align 1
@__PRETTY_FUNCTION__._ZNK5faiss14ParameterSpace20set_index_parametersEPNS_5IndexEPKc = private unnamed_addr constant [78 x i8] c"void faiss::ParameterSpace::set_index_parameters(Index *, const char *) const\00", align 1

; Function Attrs: mustprogress nounwind uwtable
define linkonce_odr noundef i64 @_ZNSt11char_traitsIcE6lengthEPKc(ptr noundef %0) #1 comdat align 2 {
  %2 = alloca ptr, align 8
  store ptr %0, ptr %2, align 8
  %3 = load ptr, ptr %2, align 8
  %4 = call i64 @strlen(ptr noundef %3) #5
  ret i64 %4
}

; Function Attrs: mustprogress nounwind uwtable
define linkonce_odr void @_ZNSt7__cxx1112basic_stringIcSt11char_traitsIcESaIcEE12_Alloc_hiderD2Ev(ptr noundef nonnull align 8 dereferenceable(8) %0) unnamed_addr #1 comdat align 2 {
  %2 = alloca ptr, align 8
  store ptr %0, ptr %2, align 8
  %3 = load ptr, ptr %2, align 8
  call void @_ZNSaIcED2Ev(ptr noundef nonnull align 1 dereferenceable(1) %3) #5
  ret void
}

; Function Attrs: mustprogress uwtable
define linkonce_odr void @_ZNSt7__cxx1112basic_stringIcSt11char_traitsIcESaIcEEC2IS3_EEPKcRKS3_(ptr noundef nonnull align 8 dereferenceable(32) %0, ptr noundef %1, ptr noundef nonnull align 1 dereferenceable(1) %2) unnamed_addr #0 comdat align 2 personality ptr @__gxx_personality_v0 {
  %4 = alloca ptr, align 8
  %5 = alloca ptr, align 8
  %6 = alloca ptr, align 8
  %7 = alloca ptr, align 8
  %8 = alloca i32, align 4
  %9 = alloca ptr, align 8
  store ptr %0, ptr %4, align 8
  store ptr %1, ptr %5, align 8
  store ptr %2, ptr %6, align 8
  %10 = load ptr, ptr %4, align 8
  %11 = getelementptr inbounds %"class.std::__cxx11::basic_string", ptr %10, i32 0, i32 0
  %12 = call noundef ptr @_ZNSt7__cxx1112basic_stringIcSt11char_traitsIcESaIcEE13_M_local_dataEv(ptr noundef nonnull align 8 dereferenceable(32) %10)
  %13 = load ptr, ptr %6, align 8
  call void @_ZNSt7__cxx1112basic_stringIcSt11char_traitsIcESaIcEE12_Alloc_hiderC1EPcRKS3_(ptr noundef nonnull align 8 dereferenceable(8) %11, ptr noundef %12, ptr noundef nonnull align 1 dereferenceable(1) %13)
  %14 = load ptr, ptr %5, align 8
  %15 = icmp eq ptr %14, null
  br i1 %15, label %16, label %22

16:                                               ; preds = %3
  invoke void @_ZSt19__throw_logic_errorPKc(ptr noundef @.str.6) #19
          to label %17 unwind label %18

17:                                               ; preds = %16
  unreachable

18:                                               ; preds = %26, %22, %16
  %19 = landingpad { ptr, i32 }
          cleanup
  %20 = extractvalue { ptr, i32 } %19, 0
  store ptr %20, ptr %7, align 8
  %21 = extractvalue { ptr, i32 } %19, 1
  store i32 %21, ptr %8, align 4
  call void @_ZNSt7__cxx1112basic_stringIcSt11char_traitsIcESaIcEE12_Alloc_hiderD2Ev(ptr noundef nonnull align 8 dereferenceable(8) %11) #5
  br label %31

22:                                               ; preds = %3
  %23 = load ptr, ptr %5, align 8
  %24 = load ptr, ptr %5, align 8
  %25 = invoke noundef i64 @_ZNSt11char_traitsIcE6lengthEPKc(ptr noundef %24)
          to label %26 unwind label %18

26:                                               ; preds = %22
  %27 = getelementptr inbounds i8, ptr %23, i64 %25
  store ptr %27, ptr %9, align 8
  %28 = load ptr, ptr %5, align 8
  %29 = load ptr, ptr %9, align 8
  invoke void @_ZNSt7__cxx1112basic_stringIcSt11char_traitsIcESaIcEE12_M_constructIPKcEEvT_S8_St20forward_iterator_tag(ptr noundef nonnull align 8 dereferenceable(32) %10, ptr noundef %28, ptr noundef %29)
          to label %30 unwind label %18

30:                                               ; preds = %26
  ret void

31:                                               ; preds = %18
  %32 = load ptr, ptr %7, align 8
  %33 = load i32, ptr %8, align 4
  %34 = insertvalue { ptr, i32 } poison, ptr %32, 0
  %35 = insertvalue { ptr, i32 } %34, i32 %33, 1
  resume { ptr, i32 } %35
}

; Function Attrs: mustprogress uwtable
define void @_ZNK5faiss14ParameterSpace20set_index_parametersEPNS_5IndexEPKc(ptr noundef nonnull align 8 dereferenceable(64) %0, ptr noundef %1, ptr noundef %2) #0 align 2 personality ptr @__gxx_personality_v0 {
  %4 = alloca ptr, align 8
  %5 = alloca ptr, align 8
  %6 = alloca ptr, align 8
  %7 = alloca %"class.std::__cxx11::basic_string", align 8
  %8 = alloca %"class.std::allocator.5", align 1
  %9 = alloca ptr, align 8
  %10 = alloca i32, align 4
  %11 = alloca ptr, align 8
  %12 = alloca ptr, align 8
  %13 = alloca [100 x i8], align 16
  %14 = alloca double, align 8
  %15 = alloca i32, align 4
  %16 = alloca %"class.std::__cxx11::basic_string", align 8
  %17 = alloca i32, align 4
  %18 = alloca %"class.std::__cxx11::basic_string", align 8
  %19 = alloca %"class.std::allocator.5", align 1
  store ptr %0, ptr %4, align 8
  store ptr %1, ptr %5, align 8
  store ptr %2, ptr %6, align 8
  %20 = load ptr, ptr %4, align 8
  %21 = load ptr, ptr %6, align 8
  call void @_ZNSaIcEC1Ev(ptr noundef nonnull align 1 dereferenceable(1) %8) #5
  invoke void @_ZNSt7__cxx1112basic_stringIcSt11char_traitsIcESaIcEEC2IS3_EEPKcRKS3_(ptr noundef nonnull align 8 dereferenceable(32) %7, ptr noundef %21, ptr noundef nonnull align 1 dereferenceable(1) %8)
          to label %22 unwind label %51

22:                                               ; preds = %3
  call void @_ZNSaIcED1Ev(ptr noundef nonnull align 1 dereferenceable(1) %8) #5
  %23 = invoke noundef nonnull align 1 dereferenceable(1) ptr @_ZNSt7__cxx1112basic_stringIcSt11char_traitsIcESaIcEEixEm(ptr noundef nonnull align 8 dereferenceable(32) %7, i64 noundef 0)
          to label %24 unwind label %55

24:                                               ; preds = %22
  %25 = call ptr @strtok_r(ptr noundef %23, ptr noundef @.str.26, ptr noundef %11) #5
  store ptr %25, ptr %12, align 8
  br label %26

26:                                               ; preds = %81, %24
  %27 = load ptr, ptr %12, align 8
  %28 = icmp ne ptr %27, null
  br i1 %28, label %29, label %92

29:                                               ; preds = %26
  %30 = load ptr, ptr %12, align 8
  %31 = getelementptr inbounds [100 x i8], ptr %13, i64 0, i64 0
  %32 = call i32 (ptr, ptr, ...) @__isoc99_sscanf(ptr noundef %30, ptr noundef @.str.27, ptr noundef %31, ptr noundef %14) #5
  store i32 %32, ptr %15, align 4
  br label %33

33:                                               ; preds = %29
  %34 = load i32, ptr %15, align 4
  %35 = icmp eq i32 %34, 2
  br i1 %35, label %70, label %36

36:                                               ; preds = %33
  br label %37

37:                                               ; preds = %36
  call void @_ZNSt7__cxx1112basic_stringIcSt11char_traitsIcESaIcEEC1Ev(ptr noundef nonnull align 8 dereferenceable(32) %16) #5
  %38 = load ptr, ptr %12, align 8
  %39 = call i32 (ptr, i64, ptr, ...) @snprintf(ptr noundef null, i64 noundef 0, ptr noundef @.str.28, ptr noundef @.str.29, ptr noundef %38) #5
  store i32 %39, ptr %17, align 4
  %40 = load i32, ptr %17, align 4
  %41 = add nsw i32 %40, 1
  %42 = sext i32 %41 to i64
  invoke void @_ZNSt7__cxx1112basic_stringIcSt11char_traitsIcESaIcEE6resizeEm(ptr noundef nonnull align 8 dereferenceable(32) %16, i64 noundef %42)
          to label %43 unwind label %59

43:                                               ; preds = %37
  %44 = invoke noundef nonnull align 1 dereferenceable(1) ptr @_ZNSt7__cxx1112basic_stringIcSt11char_traitsIcESaIcEEixEm(ptr noundef nonnull align 8 dereferenceable(32) %16, i64 noundef 0)
          to label %45 unwind label %59

45:                                               ; preds = %43
  %46 = call noundef i64 @_ZNKSt7__cxx1112basic_stringIcSt11char_traitsIcESaIcEE4sizeEv(ptr noundef nonnull align 8 dereferenceable(32) %16) #5
  %47 = load ptr, ptr %12, align 8
  %48 = call i32 (ptr, i64, ptr, ...) @snprintf(ptr noundef %44, i64 noundef %46, ptr noundef @.str.28, ptr noundef @.str.29, ptr noundef %47) #5
  %49 = call ptr @__cxa_allocate_exception(i64 40) #5
  invoke void @_ZN5faiss14FaissExceptionC1ERKNSt7__cxx1112basic_stringIcSt11char_traitsIcESaIcEEEPKcSA_i(ptr noundef nonnull align 8 dereferenceable(40) %49, ptr noundef nonnull align 8 dereferenceable(32) %16, ptr noundef @__PRETTY_FUNCTION__._ZNK5faiss14ParameterSpace20set_index_parametersEPNS_5IndexEPKc, ptr noundef @.str.3, i32 noundef 440)
          to label %50 unwind label %63

50:                                               ; preds = %45
  invoke void @__cxa_throw(ptr %49, ptr @_ZTIN5faiss14FaissExceptionE, ptr @_ZN5faiss14FaissExceptionD2Ev) #19
          to label %99 unwind label %59

51:                                               ; preds = %3
  %52 = landingpad { ptr, i32 }
          cleanup
  %53 = extractvalue { ptr, i32 } %52, 0
  store ptr %53, ptr %9, align 8
  %54 = extractvalue { ptr, i32 } %52, 1
  store i32 %54, ptr %10, align 4
  call void @_ZNSaIcED1Ev(ptr noundef nonnull align 1 dereferenceable(1) %8) #5
  br label %94

55:                                               ; preds = %22
  %56 = landingpad { ptr, i32 }
          cleanup
  %57 = extractvalue { ptr, i32 } %56, 0
  store ptr %57, ptr %9, align 8
  %58 = extractvalue { ptr, i32 } %56, 1
  store i32 %58, ptr %10, align 4
  br label %93

59:                                               ; preds = %50, %43, %37
  %60 = landingpad { ptr, i32 }
          cleanup
  %61 = extractvalue { ptr, i32 } %60, 0
  store ptr %61, ptr %9, align 8
  %62 = extractvalue { ptr, i32 } %60, 1
  store i32 %62, ptr %10, align 4
  br label %67

63:                                               ; preds = %45
  %64 = landingpad { ptr, i32 }
          cleanup
  %65 = extractvalue { ptr, i32 } %64, 0
  store ptr %65, ptr %9, align 8
  %66 = extractvalue { ptr, i32 } %64, 1
  store i32 %66, ptr %10, align 4
  call void @__cxa_free_exception(ptr %49) #5
  br label %67

67:                                               ; preds = %63, %59
  call void @_ZNSt7__cxx1112basic_stringIcSt11char_traitsIcESaIcEED1Ev(ptr noundef nonnull align 8 dereferenceable(32) %16) #5
  br label %93

68:                                               ; No predecessors!
  br label %69

69:                                               ; preds = %68
  br label %70

70:                                               ; preds = %69, %33
  br label %71

71:                                               ; preds = %70
  br label %72

72:                                               ; preds = %71
  %73 = load ptr, ptr %5, align 8
  %74 = getelementptr inbounds [100 x i8], ptr %13, i64 0, i64 0
  call void @_ZNSaIcEC1Ev(ptr noundef nonnull align 1 dereferenceable(1) %19) #5
  invoke void @_ZNSt7__cxx1112basic_stringIcSt11char_traitsIcESaIcEEC2IS3_EEPKcRKS3_(ptr noundef nonnull align 8 dereferenceable(32) %18, ptr noundef %74, ptr noundef nonnull align 1 dereferenceable(1) %19)
          to label %75 unwind label %83

75:                                               ; preds = %72
  %76 = load double, ptr %14, align 8
  %77 = load ptr, ptr %20, align 8
  %78 = getelementptr inbounds ptr, ptr %77, i64 1
  %79 = load ptr, ptr %78, align 8
  invoke void %79(ptr noundef nonnull align 8 dereferenceable(64) %20, ptr noundef %73, ptr noundef nonnull align 8 dereferenceable(32) %18, double noundef %76)
          to label %80 unwind label %87

80:                                               ; preds = %75
  call void @_ZNSt7__cxx1112basic_stringIcSt11char_traitsIcESaIcEED1Ev(ptr noundef nonnull align 8 dereferenceable(32) %18) #5
  call void @_ZNSaIcED1Ev(ptr noundef nonnull align 1 dereferenceable(1) %19) #5
  br label %81

81:                                               ; preds = %80
  %82 = call ptr @strtok_r(ptr noundef null, ptr noundef @.str.26, ptr noundef %11) #5
  store ptr %82, ptr %12, align 8
  br label %26, !llvm.loop !35

83:                                               ; preds = %72
  %84 = landingpad { ptr, i32 }
          cleanup
  %85 = extractvalue { ptr, i32 } %84, 0
  store ptr %85, ptr %9, align 8
  %86 = extractvalue { ptr, i32 } %84, 1
  store i32 %86, ptr %10, align 4
  br label %91

87:                                               ; preds = %75
  %88 = landingpad { ptr, i32 }
          cleanup
  %89 = extractvalue { ptr, i32 } %88, 0
  store ptr %89, ptr %9, align 8
  %90 = extractvalue { ptr, i32 } %88, 1
  store i32 %90, ptr %10, align 4
  call void @_ZNSt7__cxx1112basic_stringIcSt11char_traitsIcESaIcEED1Ev(ptr noundef nonnull align 8 dereferenceable(32) %18) #5
  br label %91

91:                                               ; preds = %87, %83
  call void @_ZNSaIcED1Ev(ptr noundef nonnull align 1 dereferenceable(1) %19) #5
  br label %93

92:                                               ; preds = %26
  call void @_ZNSt7__cxx1112basic_stringIcSt11char_traitsIcESaIcEED1Ev(ptr noundef nonnull align 8 dereferenceable(32) %7) #5
  ret void

93:                                               ; preds = %91, %67, %55
  call void @_ZNSt7__cxx1112basic_stringIcSt11char_traitsIcESaIcEED1Ev(ptr noundef nonnull align 8 dereferenceable(32) %7) #5
  br label %94

94:                                               ; preds = %93, %51
  %95 = load ptr, ptr %9, align 8
  %96 = load i32, ptr %10, align 4
  %97 = insertvalue { ptr, i32 } poison, ptr %95, 0
  %98 = insertvalue { ptr, i32 } %97, i32 %96, 1
  resume { ptr, i32 } %98

99:                                               ; preds = %50
  unreachable
}