; Function Attrs: mustprogress uwtable
define void @_ZNK5faiss14ParameterSpace20set_index_parametersEPNS_5IndexEPKc(ptr noundef nonnull align 8 dereferenceable(64) %0, ptr noundef %1, ptr noundef %2) local_unnamed_addr #0 align 2 personality ptr @__gxx_personality_v0 {
  %4 = alloca %"class.std::__cxx11::basic_string", align 8
  %5 = alloca %"class.std::allocator.5", align 1
  %6 = alloca ptr, align 8
  %7 = alloca [100 x i8], align 16
  %8 = alloca double, align 8
  %9 = alloca %"class.std::__cxx11::basic_string", align 8
  %10 = alloca %"class.std::__cxx11::basic_string", align 8
  %11 = alloca %"class.std::allocator.5", align 1
  call void @_ZNSaIcEC1Ev(ptr noundef nonnull align 1 dereferenceable(1) %5) #14
  %12 = invoke noundef ptr @_ZNSt7__cxx1112basic_stringIcSt11char_traitsIcESaIcEE13_M_local_dataEv(ptr noundef nonnull align 8 dereferenceable(32) %4)
          to label %.noexc unwind label %37

.noexc:                                           ; preds = %3
  invoke void @_ZNSt7__cxx1112basic_stringIcSt11char_traitsIcESaIcEE12_Alloc_hiderC1EPcRKS3_(ptr noundef nonnull align 8 dereferenceable(8) %4, ptr noundef %12, ptr noundef nonnull align 1 dereferenceable(1) %5)
          to label %.noexc20 unwind label %37

.noexc20:                                         ; preds = %.noexc
  %13 = icmp eq ptr %2, null
  br i1 %13, label %14, label %18

14:                                               ; preds = %.noexc20
  invoke void @_ZSt19__throw_logic_errorPKc(ptr noundef nonnull @.str.6) #30
          to label %15 unwind label %16

15:                                               ; preds = %14
  unreachable

16:                                               ; preds = %18, %14
  %17 = landingpad { ptr, i32 }
          cleanup
  call void @_ZNSaIcED2Ev(ptr noundef nonnull align 1 dereferenceable(1) %4) #14
  br label %.body

18:                                               ; preds = %.noexc20
  %19 = call noundef i64 @strlen(ptr noundef nonnull dereferenceable(1) %2) #14
  %20 = getelementptr inbounds i8, ptr %2, i64 %19
  invoke void @_ZNSt7__cxx1112basic_stringIcSt11char_traitsIcESaIcEE12_M_constructIPKcEEvT_S8_St20forward_iterator_tag(ptr noundef nonnull align 8 dereferenceable(32) %4, ptr noundef nonnull %2, ptr noundef nonnull %20)
          to label %_ZNSt7__cxx1112basic_stringIcSt11char_traitsIcESaIcEEC2IS3_EEPKcRKS3_.exit unwind label %16

_ZNSt7__cxx1112basic_stringIcSt11char_traitsIcESaIcEEC2IS3_EEPKcRKS3_.exit: ; preds = %18
  call void @_ZNSaIcED1Ev(ptr noundef nonnull align 1 dereferenceable(1) %5) #14
  %21 = invoke noundef nonnull align 1 dereferenceable(1) ptr @_ZNSt7__cxx1112basic_stringIcSt11char_traitsIcESaIcEEixEm(ptr noundef nonnull align 8 dereferenceable(32) %4, i64 noundef 0)
          to label %22 unwind label %39

22:                                               ; preds = %_ZNSt7__cxx1112basic_stringIcSt11char_traitsIcESaIcEEC2IS3_EEPKcRKS3_.exit
  %23 = call ptr @strtok_r(ptr noundef nonnull %21, ptr noundef nonnull @.str.26, ptr noundef nonnull %6) #14
  %.not30 = icmp eq ptr %23, null
  br i1 %.not30, label %._crit_edge, label %.lr.ph

.lr.ph:                                           ; preds = %22, %56
  %.01431 = phi ptr [ %57, %56 ], [ %23, %22 ]
  %24 = call i32 (ptr, ptr, ...) @__isoc99_sscanf(ptr noundef nonnull %.01431, ptr noundef nonnull @.str.27, ptr noundef nonnull %7, ptr noundef nonnull %8) #14
  %25 = icmp eq i32 %24, 2
  br i1 %25, label %46, label %26

26:                                               ; preds = %.lr.ph
  call void @_ZNSt7__cxx1112basic_stringIcSt11char_traitsIcESaIcEEC1Ev(ptr noundef nonnull align 8 dereferenceable(32) %9) #14
  %27 = call i32 (ptr, i64, ptr, ...) @snprintf(ptr noundef null, i64 noundef 0, ptr noundef nonnull @.str.28, ptr noundef nonnull @.str.29, ptr noundef nonnull %.01431) #14
  %28 = add nsw i32 %27, 1
  %29 = sext i32 %28 to i64
  invoke void @_ZNSt7__cxx1112basic_stringIcSt11char_traitsIcESaIcEE6resizeEm(ptr noundef nonnull align 8 dereferenceable(32) %9, i64 noundef %29)
          to label %30 unwind label %41

30:                                               ; preds = %26
  %31 = invoke noundef nonnull align 1 dereferenceable(1) ptr @_ZNSt7__cxx1112basic_stringIcSt11char_traitsIcESaIcEEixEm(ptr noundef nonnull align 8 dereferenceable(32) %9, i64 noundef 0)
          to label %32 unwind label %41

32:                                               ; preds = %30
  %33 = call noundef i64 @_ZNKSt7__cxx1112basic_stringIcSt11char_traitsIcESaIcEE4sizeEv(ptr noundef nonnull align 8 dereferenceable(32) %9) #14
  %34 = call i32 (ptr, i64, ptr, ...) @snprintf(ptr noundef nonnull %31, i64 noundef %33, ptr noundef nonnull @.str.28, ptr noundef nonnull @.str.29, ptr noundef nonnull %.01431) #14
  %35 = call ptr @__cxa_allocate_exception(i64 40) #14
  invoke void @_ZN5faiss14FaissExceptionC1ERKNSt7__cxx1112basic_stringIcSt11char_traitsIcESaIcEEEPKcSA_i(ptr noundef nonnull align 8 dereferenceable(40) %35, ptr noundef nonnull align 8 dereferenceable(32) %9, ptr noundef nonnull @__PRETTY_FUNCTION__._ZNK5faiss14ParameterSpace20set_index_parametersEPNS_5IndexEPKc, ptr noundef nonnull @.str.3, i32 noundef 440)
          to label %36 unwind label %43

36:                                               ; preds = %32
  invoke void @__cxa_throw(ptr nonnull %35, ptr nonnull @_ZTIN5faiss14FaissExceptionE, ptr nonnull @_ZN5faiss14FaissExceptionD2Ev) #30
          to label %64 unwind label %41

37:                                               ; preds = %.noexc, %3
  %38 = landingpad { ptr, i32 }
          cleanup
  br label %.body

.body:                                            ; preds = %16, %37
  %eh.lpad-body = phi { ptr, i32 } [ %38, %37 ], [ %17, %16 ]
  call void @_ZNSaIcED1Ev(ptr noundef nonnull align 1 dereferenceable(1) %5) #14
  br label %63

39:                                               ; preds = %_ZNSt7__cxx1112basic_stringIcSt11char_traitsIcESaIcEEC2IS3_EEPKcRKS3_.exit
  %40 = landingpad { ptr, i32 }
          cleanup
  br label %62

41:                                               ; preds = %36, %30, %26
  %42 = landingpad { ptr, i32 }
          cleanup
  br label %45

43:                                               ; preds = %32
  %44 = landingpad { ptr, i32 }
          cleanup
  call void @__cxa_free_exception(ptr %35) #14
  br label %45

45:                                               ; preds = %43, %41
  %.pn = phi { ptr, i32 } [ %42, %41 ], [ %44, %43 ]
  call void @_ZNSt7__cxx1112basic_stringIcSt11char_traitsIcESaIcEED1Ev(ptr noundef nonnull align 8 dereferenceable(32) %9) #14
  br label %62

46:                                               ; preds = %.lr.ph
  call void @_ZNSaIcEC1Ev(ptr noundef nonnull align 1 dereferenceable(1) %11) #14
  %47 = invoke noundef ptr @_ZNSt7__cxx1112basic_stringIcSt11char_traitsIcESaIcEE13_M_local_dataEv(ptr noundef nonnull align 8 dereferenceable(32) %10)
          to label %.noexc21 unwind label %58

.noexc21:                                         ; preds = %46
  invoke void @_ZNSt7__cxx1112basic_stringIcSt11char_traitsIcESaIcEE12_Alloc_hiderC1EPcRKS3_(ptr noundef nonnull align 8 dereferenceable(8) %10, ptr noundef %47, ptr noundef nonnull align 1 dereferenceable(1) %11)
          to label %.noexc22 unwind label %58

.noexc22:                                         ; preds = %.noexc21
  %48 = call noundef i64 @strlen(ptr noundef nonnull dereferenceable(1) %7) #14
  %49 = getelementptr inbounds i8, ptr %7, i64 %48
  invoke void @_ZNSt7__cxx1112basic_stringIcSt11char_traitsIcESaIcEE12_M_constructIPKcEEvT_S8_St20forward_iterator_tag(ptr noundef nonnull align 8 dereferenceable(32) %10, ptr noundef nonnull %7, ptr noundef nonnull %49)
          to label %_ZNSt7__cxx1112basic_stringIcSt11char_traitsIcESaIcEEC2IS3_EEPKcRKS3_.exit25 unwind label %50

50:                                               ; preds = %.noexc22
  %51 = landingpad { ptr, i32 }
          cleanup
  call void @_ZNSaIcED2Ev(ptr noundef nonnull align 1 dereferenceable(1) %10) #14
  br label %.body23

_ZNSt7__cxx1112basic_stringIcSt11char_traitsIcESaIcEEC2IS3_EEPKcRKS3_.exit25: ; preds = %.noexc22
  %52 = load double, ptr %8, align 8
  %53 = load ptr, ptr %0, align 8
  %54 = getelementptr inbounds i8, ptr %53, i64 8
  %55 = load ptr, ptr %54, align 8
  invoke void %55(ptr noundef nonnull align 8 dereferenceable(64) %0, ptr noundef %1, ptr noundef nonnull align 8 dereferenceable(32) %10, double noundef %52)
          to label %56 unwind label %60

56:                                               ; preds = %_ZNSt7__cxx1112basic_stringIcSt11char_traitsIcESaIcEEC2IS3_EEPKcRKS3_.exit25
  call void @_ZNSt7__cxx1112basic_stringIcSt11char_traitsIcESaIcEED1Ev(ptr noundef nonnull align 8 dereferenceable(32) %10) #14
  call void @_ZNSaIcED1Ev(ptr noundef nonnull align 1 dereferenceable(1) %11) #14
  %57 = call ptr @strtok_r(ptr noundef null, ptr noundef nonnull @.str.26, ptr noundef nonnull %6) #14
  %.not = icmp eq ptr %57, null
  br i1 %.not, label %._crit_edge, label %.lr.ph, !llvm.loop !56

58:                                               ; preds = %.noexc21, %46
  %59 = landingpad { ptr, i32 }
          cleanup
  br label %.body23

60:                                               ; preds = %_ZNSt7__cxx1112basic_stringIcSt11char_traitsIcESaIcEEC2IS3_EEPKcRKS3_.exit25
  %61 = landingpad { ptr, i32 }
          cleanup
  call void @_ZNSt7__cxx1112basic_stringIcSt11char_traitsIcESaIcEED1Ev(ptr noundef nonnull align 8 dereferenceable(32) %10) #14
  br label %.body23

.body23:                                          ; preds = %58, %50, %60
  %.pn16 = phi { ptr, i32 } [ %61, %60 ], [ %59, %58 ], [ %51, %50 ]
  call void @_ZNSaIcED1Ev(ptr noundef nonnull align 1 dereferenceable(1) %11) #14
  br label %62

._crit_edge:                                      ; preds = %56, %22
  call void @_ZNSt7__cxx1112basic_stringIcSt11char_traitsIcESaIcEED1Ev(ptr noundef nonnull align 8 dereferenceable(32) %4) #14
  ret void

62:                                               ; preds = %.body23, %45, %39
  %.pn16.pn = phi { ptr, i32 } [ %.pn16, %.body23 ], [ %.pn, %45 ], [ %40, %39 ]
  call void @_ZNSt7__cxx1112basic_stringIcSt11char_traitsIcESaIcEED1Ev(ptr noundef nonnull align 8 dereferenceable(32) %4) #14
  br label %63

63:                                               ; preds = %62, %.body
  %.pn16.pn.pn = phi { ptr, i32 } [ %.pn16.pn, %62 ], [ %eh.lpad-body, %.body ]
  resume { ptr, i32 } %.pn16.pn.pn

64:                                               ; preds = %36
  unreachable
}